target datalayout = "e-m:e-p270:32:32-p271:32:32-p272:64:64-i64:64-i128:128-f80:128-n8:16:32:64-S128"
target triple = "x86_64-pc-linux-gnu"

%struct._typeobject = type { %struct.PyVarObject, ptr, i64, i64, ptr, i64, ptr, ptr, ptr, ptr, ptr, ptr, ptr, ptr, ptr, ptr, ptr, ptr, ptr, i64, ptr, ptr, ptr, ptr, i64, ptr, ptr, ptr, ptr, ptr, ptr, ptr, ptr, ptr, i64, ptr, ptr, ptr, ptr, ptr, ptr, ptr, ptr, ptr, ptr, ptr, i32, ptr, ptr, i8, i16 }
%struct.PyVarObject = type { %struct._object, i64 }
%struct._object = type { %union.anon, ptr }
%union.anon = type { i64 }
%struct.PyNumberMethods = type { ptr, ptr, ptr, ptr, ptr, ptr, ptr, ptr, ptr, ptr, ptr, ptr, ptr, ptr, ptr, ptr, ptr, ptr, ptr, ptr, ptr, ptr, ptr, ptr, ptr, ptr, ptr, ptr, ptr, ptr, ptr, ptr, ptr, ptr, ptr, ptr }
%struct.PyMappingMethods = type { ptr, ptr, ptr }
%struct.PySequenceMethods = type { ptr, ptr, ptr, ptr, ptr, ptr, ptr, ptr, ptr, ptr }

; Function Attrs: nounwind uwtable
define internal i32 @check_type_always_true(ptr noundef %0) #0 {
  %2 = alloca i32, align 4
  %3 = alloca ptr, align 8
  %4 = alloca ptr, align 8
  %5 = alloca i32, align 4
  %6 = alloca ptr, align 8
  %7 = alloca ptr, align 8
  store ptr %0, ptr %3, align 8, !tbaa !20
  call void @llvm.lifetime.start.p0(i64 8, ptr %4) #7
  %8 = load ptr, ptr %3, align 8, !tbaa !20
  %9 = getelementptr inbounds nuw %struct._typeobject, ptr %8, i32 0, i32 10
  %10 = load ptr, ptr %9, align 8, !tbaa !178
  store ptr %10, ptr %4, align 8, !tbaa !4
  %11 = load ptr, ptr %4, align 8, !tbaa !4
  %12 = icmp ne ptr %11, null
  br i1 %12, label %13, label %19

13:                                               ; preds = %1
  %14 = load ptr, ptr %4, align 8, !tbaa !4
  %15 = getelementptr inbounds nuw %struct.PyNumberMethods, ptr %14, i32 0, i32 9
  %16 = load ptr, ptr %15, align 8, !tbaa !179
  %17 = icmp ne ptr %16, null
  br i1 %17, label %18, label %19

18:                                               ; preds = %13
  store i32 15, ptr %2, align 4
  store i32 1, ptr %5, align 4
  br label %46

19:                                               ; preds = %13, %1
  call void @llvm.lifetime.start.p0(i64 8, ptr %6) #7
  %20 = load ptr, ptr %3, align 8, !tbaa !20
  %21 = getelementptr inbounds nuw %struct._typeobject, ptr %20, i32 0, i32 12
  %22 = load ptr, ptr %21, align 8, !tbaa !181
  store ptr %22, ptr %6, align 8, !tbaa !4
  %23 = load ptr, ptr %6, align 8, !tbaa !4
  %24 = icmp ne ptr %23, null
  br i1 %24, label %25, label %31

25:                                               ; preds = %19
  %26 = load ptr, ptr %6, align 8, !tbaa !4
  %27 = getelementptr inbounds nuw %struct.PyMappingMethods, ptr %26, i32 0, i32 0
  %28 = load ptr, ptr %27, align 8, !tbaa !182
  %29 = icmp ne ptr %28, null
  br i1 %29, label %30, label %31

30:                                               ; preds = %25
  store i32 13, ptr %2, align 4
  store i32 1, ptr %5, align 4
  br label %45

31:                                               ; preds = %25, %19
  call void @llvm.lifetime.start.p0(i64 8, ptr %7) #7
  %32 = load ptr, ptr %3, align 8, !tbaa !20
  %33 = getelementptr inbounds nuw %struct._typeobject, ptr %32, i32 0, i32 11
  %34 = load ptr, ptr %33, align 8, !tbaa !184
  store ptr %34, ptr %7, align 8, !tbaa !4
  %35 = load ptr, ptr %7, align 8, !tbaa !4
  %36 = icmp ne ptr %35, null
  br i1 %36, label %37, label %43

37:                                               ; preds = %31
  %38 = load ptr, ptr %7, align 8, !tbaa !4
  %39 = getelementptr inbounds nuw %struct.PySequenceMethods, ptr %38, i32 0, i32 0
  %40 = load ptr, ptr %39, align 8, !tbaa !185
  %41 = icmp ne ptr %40, null
  br i1 %41, label %42, label %43

42:                                               ; preds = %37
  store i32 16, ptr %2, align 4
  store i32 1, ptr %5, align 4
  br label %44

43:                                               ; preds = %37, %31
  store i32 0, ptr %2, align 4
  store i32 1, ptr %5, align 4
  br label %44

44:                                               ; preds = %43, %42
  call void @llvm.lifetime.end.p0(i64 8, ptr %7) #7
  br label %45

45:                                               ; preds = %44, %30
  call void @llvm.lifetime.end.p0(i64 8, ptr %6) #7
  br label %46

46:                                               ; preds = %45, %18
  call void @llvm.lifetime.end.p0(i64 8, ptr %4) #7
  %47 = load i32, ptr %2, align 4
  ret i32 %47
}