; Function Attrs: mustprogress nofree norecurse nosync nounwind willreturn memory(read, inaccessiblemem: none) uwtable
define internal range(i32 0, 17) i32 @check_type_always_true(ptr noundef readonly captures(none) %0) #5 {
  %2 = getelementptr inbounds nuw i8, ptr %0, i64 96
  %3 = load ptr, ptr %2, align 8, !tbaa !175
  %.not = icmp eq ptr %3, null
  br i1 %.not, label %7, label %4

4:                                                ; preds = %1
  %5 = getelementptr inbounds nuw i8, ptr %3, i64 72
  %6 = load ptr, ptr %5, align 8, !tbaa !176
  %.not12 = icmp eq ptr %6, null
  br i1 %.not12, label %7, label %18

7:                                                ; preds = %4, %1
  %8 = getelementptr inbounds nuw i8, ptr %0, i64 112
  %9 = load ptr, ptr %8, align 8, !tbaa !177
  %.not13 = icmp eq ptr %9, null
  br i1 %.not13, label %12, label %10

10:                                               ; preds = %7
  %11 = load ptr, ptr %9, align 8, !tbaa !178
  %.not14 = icmp eq ptr %11, null
  br i1 %.not14, label %12, label %18

12:                                               ; preds = %10, %7
  %13 = getelementptr inbounds nuw i8, ptr %0, i64 104
  %14 = load ptr, ptr %13, align 8, !tbaa !179
  %.not15 = icmp eq ptr %14, null
  br i1 %.not15, label %17, label %15

15:                                               ; preds = %12
  %16 = load ptr, ptr %14, align 8, !tbaa !180
  %.not16 = icmp eq ptr %16, null
  br i1 %.not16, label %17, label %18

17:                                               ; preds = %15, %12
  br label %18

18:                                               ; preds = %10, %15, %17, %4
  %.0 = phi i32 [ 15, %4 ], [ 13, %10 ], [ 0, %17 ], [ 16, %15 ]
  ret i32 %.0
}